; ModuleID = '43/1629.c'
source_filename = "43/1629.c"
target datalayout = "e-m:e-p270:32:32-p271:32:32-p272:64:64-i64:64-f80:128-n8:16:32:64-S128"
target triple = "x86_64-pc-linux-gnu"

@.str = private unnamed_addr constant [3 x i8] c"%d\00", align 1
@.str.1 = private unnamed_addr constant [7 x i8] c"%d %d\0A\00", align 1

; Function Attrs: noinline nounwind uwtable
define dso_local i32 @main() #0 {
  %1 = alloca i32, align 4
  %2 = alloca i32, align 4
  %3 = alloca [5001 x i32], align 16
  %4 = alloca i32, align 4
  %5 = alloca i32, align 4
  %6 = alloca i32, align 4
  store i32 0, i32* %1, align 4
  store i32 0, i32* %2, align 4
  %7 = call i32 (i8*, ...) @__isoc99_scanf(i8* getelementptr inbounds ([3 x i8], [3 x i8]* @.str, i64 0, i64 0), i32* %2)
  store i32 1, i32* %4, align 4
  %8 = getelementptr inbounds [5001 x i32], [5001 x i32]* %3, i64 0, i64 0
  store i32 0, i32* %8, align 16
  %9 = getelementptr inbounds [5001 x i32], [5001 x i32]* %3, i64 0, i64 1
  store i32 2, i32* %9, align 4
  store i32 0, i32* %5, align 4
  store i32 0, i32* %6, align 4
  store i32 2, i32* %5, align 4
  br label %10

10:                                               ; preds = %45, %0
  %11 = load i32, i32* %5, align 4
  %12 = load i32, i32* %2, align 4
  %13 = icmp sle i32 %11, %12
  br i1 %13, label %14, label %48

14:                                               ; preds = %10
  store i32 1, i32* %6, align 4
  br label %15

15:                                               ; preds = %29, %14
  %16 = load i32, i32* %6, align 4
  %17 = load i32, i32* %4, align 4
  %18 = icmp sle i32 %16, %17
  br i1 %18, label %19, label %32

19:                                               ; preds = %15
  %20 = load i32, i32* %5, align 4
  %21 = load i32, i32* %6, align 4
  %22 = sext i32 %21 to i64
  %23 = getelementptr inbounds [5001 x i32], [5001 x i32]* %3, i64 0, i64 %22
  %24 = load i32, i32* %23, align 4
  %25 = srem i32 %20, %24
  %26 = icmp eq i32 %25, 0
  br i1 %26, label %27, label %28

27:                                               ; preds = %19
  br label %32

28:                                               ; preds = %19
  br label %29

29:                                               ; preds = %28
  %30 = load i32, i32* %6, align 4
  %31 = add nsw i32 %30, 1
  store i32 %31, i32* %6, align 4
  br label %15

32:                                               ; preds = %27, %15
  %33 = load i32, i32* %6, align 4
  %34 = load i32, i32* %4, align 4
  %35 = add nsw i32 %34, 1
  %36 = icmp eq i32 %33, %35
  br i1 %36, label %37, label %44

37:                                               ; preds = %32
  %38 = load i32, i32* %4, align 4
  %39 = add nsw i32 %38, 1
  store i32 %39, i32* %4, align 4
  %40 = load i32, i32* %5, align 4
  %41 = load i32, i32* %4, align 4
  %42 = sext i32 %41 to i64
  %43 = getelementptr inbounds [5001 x i32], [5001 x i32]* %3, i64 0, i64 %42
  store i32 %40, i32* %43, align 4
  br label %44

44:                                               ; preds = %37, %32
  br label %45

45:                                               ; preds = %44
  %46 = load i32, i32* %5, align 4
  %47 = add nsw i32 %46, 1
  store i32 %47, i32* %5, align 4
  br label %10

48:                                               ; preds = %10
  store i32 1, i32* %5, align 4
  br label %49

49:                                               ; preds = %109, %48
  %50 = load i32, i32* %5, align 4
  %51 = load i32, i32* %4, align 4
  %52 = icmp sle i32 %50, %51
  br i1 %52, label %53, label %112

53:                                               ; preds = %49
  %54 = load i32, i32* %5, align 4
  %55 = sext i32 %54 to i64
  %56 = getelementptr inbounds [5001 x i32], [5001 x i32]* %3, i64 0, i64 %55
  %57 = load i32, i32* %56, align 4
  %58 = load i32, i32* %2, align 4
  %59 = sdiv i32 %58, 2
  %60 = icmp sgt i32 %57, %59
  br i1 %60, label %61, label %62

61:                                               ; preds = %53
  br label %112

62:                                               ; preds = %53
  %63 = load i32, i32* %5, align 4
  store i32 %63, i32* %6, align 4
  br label %64

64:                                               ; preds = %105, %62
  %65 = load i32, i32* %6, align 4
  %66 = load i32, i32* %4, align 4
  %67 = icmp sle i32 %65, %66
  br i1 %67, label %68, label %80

68:                                               ; preds = %64
  %69 = load i32, i32* %5, align 4
  %70 = sext i32 %69 to i64
  %71 = getelementptr inbounds [5001 x i32], [5001 x i32]* %3, i64 0, i64 %70
  %72 = load i32, i32* %71, align 4
  %73 = load i32, i32* %6, align 4
  %74 = sext i32 %73 to i64
  %75 = getelementptr inbounds [5001 x i32], [5001 x i32]* %3, i64 0, i64 %74
  %76 = load i32, i32* %75, align 4
  %77 = add nsw i32 %72, %76
  %78 = load i32, i32* %2, align 4
  %79 = icmp sle i32 %77, %78
  br label %80

80:                                               ; preds = %68, %64
  %81 = phi i1 [ false, %64 ], [ %79, %68 ]
  br i1 %81, label %82, label %108

82:                                               ; preds = %80
  %83 = load i32, i32* %5, align 4
  %84 = sext i32 %83 to i64
  %85 = getelementptr inbounds [5001 x i32], [5001 x i32]* %3, i64 0, i64 %84
  %86 = load i32, i32* %85, align 4
  %87 = load i32, i32* %6, align 4
  %88 = sext i32 %87 to i64
  %89 = getelementptr inbounds [5001 x i32], [5001 x i32]* %3, i64 0, i64 %88
  %90 = load i32, i32* %89, align 4
  %91 = add nsw i32 %86, %90
  %92 = load i32, i32* %2, align 4
  %93 = icmp eq i32 %91, %92
  br i1 %93, label %94, label %104

94:                                               ; preds = %82
  %95 = load i32, i32* %5, align 4
  %96 = sext i32 %95 to i64
  %97 = getelementptr inbounds [5001 x i32], [5001 x i32]* %3, i64 0, i64 %96
  %98 = load i32, i32* %97, align 4
  %99 = load i32, i32* %6, align 4
  %100 = sext i32 %99 to i64
  %101 = getelementptr inbounds [5001 x i32], [5001 x i32]* %3, i64 0, i64 %100
  %102 = load i32, i32* %101, align 4
  %103 = call i32 (i8*, ...) @printf(i8* getelementptr inbounds ([7 x i8], [7 x i8]* @.str.1, i64 0, i64 0), i32 %98, i32 %102)
  br label %104

104:                                              ; preds = %94, %82
  br label %105

105:                                              ; preds = %104
  %106 = load i32, i32* %6, align 4
  %107 = add nsw i32 %106, 1
  store i32 %107, i32* %6, align 4
  br label %64

108:                                              ; preds = %80
  br label %109

109:                                              ; preds = %108
  %110 = load i32, i32* %5, align 4
  %111 = add nsw i32 %110, 1
  store i32 %111, i32* %5, align 4
  br label %49

112:                                              ; preds = %61, %49
  ret i32 0
}

declare dso_local i32 @__isoc99_scanf(i8*, ...) #1

declare dso_local i32 @printf(i8*, ...) #1


!llvm.module.flags = !{!0}
!llvm.ident = !{!1}

!0 = !{i32 1, !"wchar_size", i32 4}
!1 = !{!"clang version 10.0.0-4ubuntu1 "}
